target datalayout = "e-m:e-p270:32:32-p271:32:32-p272:64:64-i64:64-i128:128-f80:128-n8:16:32:64-S128"
target triple = "x86_64-pc-linux-gnu"

@H5_libinit_g = external global i8, align 1
@H5_libterm_g = external global i8, align 1
@.str = private unnamed_addr constant [97 x i8] c"generated/home/dtcxzyw/WorkSpace/Projects/compilers/llvm-opt-benchmark/bench/hdf5/hdf5/src/H5I.c\00", align 1
@H5E_FUNC_g = external global i64, align 8
@H5E_CANTINIT_g = external global i64, align 8
@.str.1 = private unnamed_addr constant [30 x i8] c"library initialization failed\00", align 1
@H5E_CANTSET_g = external global i64, align 8
@.str.2 = private unnamed_addr constant [22 x i8] c"can't set API context\00", align 1
@H5I_next_type_g = external global i32, align 4
@H5I_type_info_array_g = external global [127 x ptr], align 16
@H5E_ID_g = external global i64, align 8
@__func__.H5Itype_exists = private unnamed_addr constant [15 x i8] c"H5Itype_exists\00", align 1
@H5E_BADGROUP_g = external global i64, align 8
@.str.6 = private unnamed_addr constant [44 x i8] c"cannot call public function on library type\00", align 1
@H5E_ARGS_g = external global i64, align 8
@H5E_BADRANGE_g = external global i64, align 8
@.str.7 = private unnamed_addr constant [20 x i8] c"invalid type number\00", align 1

; Function Attrs: nounwind uwtable
define i32 @H5Itype_exists(i32 noundef %0) #0 {
  %2 = alloca i32, align 4
  %3 = alloca i32, align 4
  %4 = alloca i8, align 1
  %5 = alloca i8, align 1
  store i32 %0, ptr %2, align 4
  store i32 1, ptr %3, align 4
  store i8 0, ptr %4, align 1
  store i8 0, ptr %5, align 1
  %6 = load i8, ptr @H5_libinit_g, align 1
  %7 = trunc i8 %6 to i1
  br i1 %7, label %12, label %8

8:                                                ; preds = %1
  %9 = load i8, ptr @H5_libterm_g, align 1
  %10 = trunc i8 %9 to i1
  %11 = xor i1 %10, true
  br label %12

12:                                               ; preds = %8, %1
  %13 = phi i1 [ false, %1 ], [ %11, %8 ]
  %14 = xor i1 %13, true
  %15 = xor i1 %14, true
  %16 = zext i1 %15 to i32
  %17 = sext i32 %16 to i64
  %18 = icmp ne i64 %17, 0
  br i1 %18, label %19, label %43

19:                                               ; preds = %12
  %20 = call i32 @H5_init_library()
  %21 = icmp slt i32 %20, 0
  %22 = xor i1 %21, true
  %23 = xor i1 %22, true
  %24 = zext i1 %23 to i32
  %25 = sext i32 %24 to i64
  %26 = icmp ne i64 %25, 0
  br i1 %26, label %27, label %42

27:                                               ; preds = %19
  br label %28

28:                                               ; preds = %27
  br label %29

29:                                               ; preds = %28
  br label %30

30:                                               ; preds = %29
  %31 = load i64, ptr @H5E_FUNC_g, align 8
  %32 = load i64, ptr @H5E_CANTINIT_g, align 8
  %33 = call i32 (ptr, ptr, i32, i64, i64, ptr, ...) @H5E_printf_stack(ptr noundef @.str, ptr noundef @__func__.H5Itype_exists, i32 noundef 168, i64 noundef %31, i64 noundef %32, ptr noundef @.str.1)
  br label %34

34:                                               ; preds = %30
  store i8 1, ptr %5, align 1
  %35 = load i8, ptr %5, align 1
  %36 = trunc i8 %35 to i1
  %37 = zext i1 %36 to i8
  store i8 %37, ptr %5, align 1
  br label %38

38:                                               ; preds = %34
  br label %39

39:                                               ; preds = %38
  store i32 -1, ptr %3, align 4
  br label %119

40:                                               ; No predecessors!
  br label %41

41:                                               ; preds = %40
  br label %42

42:                                               ; preds = %41, %19
  br label %43

43:                                               ; preds = %42, %12
  %44 = call i32 @H5CX_push()
  %45 = icmp slt i32 %44, 0
  %46 = xor i1 %45, true
  %47 = xor i1 %46, true
  %48 = zext i1 %47 to i32
  %49 = sext i32 %48 to i64
  %50 = icmp ne i64 %49, 0
  br i1 %50, label %51, label %66

51:                                               ; preds = %43
  br label %52

52:                                               ; preds = %51
  br label %53

53:                                               ; preds = %52
  br label %54

54:                                               ; preds = %53
  %55 = load i64, ptr @H5E_FUNC_g, align 8
  %56 = load i64, ptr @H5E_CANTSET_g, align 8
  %57 = call i32 (ptr, ptr, i32, i64, i64, ptr, ...) @H5E_printf_stack(ptr noundef @.str, ptr noundef @__func__.H5Itype_exists, i32 noundef 168, i64 noundef %55, i64 noundef %56, ptr noundef @.str.2)
  br label %58

58:                                               ; preds = %54
  store i8 1, ptr %5, align 1
  %59 = load i8, ptr %5, align 1
  %60 = trunc i8 %59 to i1
  %61 = zext i1 %60 to i8
  store i8 %61, ptr %5, align 1
  br label %62

62:                                               ; preds = %58
  br label %63

63:                                               ; preds = %62
  store i32 -1, ptr %3, align 4
  br label %119

64:                                               ; No predecessors!
  br label %65

65:                                               ; preds = %64
  br label %67

66:                                               ; preds = %43
  store i8 1, ptr %4, align 1
  br label %67

67:                                               ; preds = %66, %65
  %68 = call i32 @H5E_clear_stack()
  %69 = load i32, ptr %2, align 4
  %70 = icmp sgt i32 %69, 0
  br i1 %70, label %71, label %89

71:                                               ; preds = %67
  %72 = load i32, ptr %2, align 4
  %73 = icmp slt i32 %72, 17
  br i1 %73, label %74, label %89

74:                                               ; preds = %71
  br label %75

75:                                               ; preds = %74
  br label %76

76:                                               ; preds = %75
  br label %77

77:                                               ; preds = %76
  %78 = load i64, ptr @H5E_ID_g, align 8
  %79 = load i64, ptr @H5E_BADGROUP_g, align 8
  %80 = call i32 (ptr, ptr, i32, i64, i64, ptr, ...) @H5E_printf_stack(ptr noundef @.str, ptr noundef @__func__.H5Itype_exists, i32 noundef 172, i64 noundef %78, i64 noundef %79, ptr noundef @.str.6)
  br label %81

81:                                               ; preds = %77
  store i8 1, ptr %5, align 1
  %82 = load i8, ptr %5, align 1
  %83 = trunc i8 %82 to i1
  %84 = zext i1 %83 to i8
  store i8 %84, ptr %5, align 1
  br label %85

85:                                               ; preds = %81
  br label %86

86:                                               ; preds = %85
  store i32 -1, ptr %3, align 4
  br label %119

87:                                               ; No predecessors!
  br label %88

88:                                               ; preds = %87
  br label %89

89:                                               ; preds = %88, %71, %67
  %90 = load i32, ptr %2, align 4
  %91 = icmp sle i32 %90, -1
  br i1 %91, label %96, label %92

92:                                               ; preds = %89
  %93 = load i32, ptr %2, align 4
  %94 = load i32, ptr @H5I_next_type_g, align 4
  %95 = icmp sge i32 %93, %94
  br i1 %95, label %96, label %111

96:                                               ; preds = %92, %89
  br label %97

97:                                               ; preds = %96
  br label %98

98:                                               ; preds = %97
  br label %99

99:                                               ; preds = %98
  %100 = load i64, ptr @H5E_ARGS_g, align 8
  %101 = load i64, ptr @H5E_BADRANGE_g, align 8
  %102 = call i32 (ptr, ptr, i32, i64, i64, ptr, ...) @H5E_printf_stack(ptr noundef @.str, ptr noundef @__func__.H5Itype_exists, i32 noundef 174, i64 noundef %100, i64 noundef %101, ptr noundef @.str.7)
  br label %103

103:                                              ; preds = %99
  store i8 1, ptr %5, align 1
  %104 = load i8, ptr %5, align 1
  %105 = trunc i8 %104 to i1
  %106 = zext i1 %105 to i8
  store i8 %106, ptr %5, align 1
  br label %107

107:                                              ; preds = %103
  br label %108

108:                                              ; preds = %107
  store i32 -1, ptr %3, align 4
  br label %119

109:                                              ; No predecessors!
  br label %110

110:                                              ; preds = %109
  br label %111

111:                                              ; preds = %110, %92
  %112 = load i32, ptr %2, align 4
  %113 = sext i32 %112 to i64
  %114 = getelementptr inbounds [127 x ptr], ptr @H5I_type_info_array_g, i64 0, i64 %113
  %115 = load ptr, ptr %114, align 8
  %116 = icmp eq ptr null, %115
  br i1 %116, label %117, label %118

117:                                              ; preds = %111
  store i32 0, ptr %3, align 4
  br label %118

118:                                              ; preds = %117, %111
  br label %119

119:                                              ; preds = %118, %108, %86, %63, %39
  %120 = load i8, ptr %4, align 1
  %121 = trunc i8 %120 to i1
  %122 = xor i1 %121, true
  %123 = xor i1 %122, true
  %124 = zext i1 %123 to i32
  %125 = sext i32 %124 to i64
  %126 = icmp ne i64 %125, 0
  br i1 %126, label %127, label %129

127:                                              ; preds = %119
  %128 = call i32 @H5CX_pop(i1 noundef zeroext true)
  store i8 0, ptr %4, align 1
  br label %129

129:                                              ; preds = %127, %119
  %130 = load i8, ptr %5, align 1
  %131 = trunc i8 %130 to i1
  %132 = xor i1 %131, true
  %133 = xor i1 %132, true
  %134 = zext i1 %133 to i32
  %135 = sext i32 %134 to i64
  %136 = icmp ne i64 %135, 0
  br i1 %136, label %137, label %139

137:                                              ; preds = %129
  %138 = call i32 @H5E_dump_api_stack()
  br label %139

139:                                              ; preds = %137, %129
  %140 = load i32, ptr %3, align 4
  ret i32 %140
}