; Function Attrs: nounwind uwtable
define range(i32 -1, 2) i32 @H5Itype_exists(i32 noundef %0) local_unnamed_addr #0 {
  %2 = load i8, ptr @H5_libinit_g, align 1
  %3 = trunc i8 %2 to i1
  %4 = load i8, ptr @H5_libterm_g, align 1
  %5 = trunc i8 %4 to i1
  %6 = select i1 %3, i1 true, i1 %5
  br i1 %6, label %14, label %7

7:                                                ; preds = %1
  %8 = tail call i32 @H5_init_library() #3
  %9 = icmp slt i32 %8, 0
  br i1 %9, label %10, label %14

10:                                               ; preds = %7
  %11 = load i64, ptr @H5E_FUNC_g, align 8
  %12 = load i64, ptr @H5E_CANTINIT_g, align 8
  %13 = tail call i32 (ptr, ptr, i32, i64, i64, ptr, ...) @H5E_printf_stack(ptr noundef nonnull @.str, ptr noundef nonnull @__func__.H5Itype_exists, i32 noundef 168, i64 noundef %11, i64 noundef %12, ptr noundef nonnull @.str.1) #3
  br label %.thread25

14:                                               ; preds = %7, %1
  %15 = tail call i32 @H5CX_push() #3
  %16 = icmp slt i32 %15, 0
  br i1 %16, label %17, label %21

17:                                               ; preds = %14
  %18 = load i64, ptr @H5E_FUNC_g, align 8
  %19 = load i64, ptr @H5E_CANTSET_g, align 8
  %20 = tail call i32 (ptr, ptr, i32, i64, i64, ptr, ...) @H5E_printf_stack(ptr noundef nonnull @.str, ptr noundef nonnull @__func__.H5Itype_exists, i32 noundef 168, i64 noundef %18, i64 noundef %19, ptr noundef nonnull @.str.2) #3
  br label %.thread25

21:                                               ; preds = %14
  %22 = tail call i32 @H5E_clear_stack() #3
  %23 = add i32 %0, -1
  %or.cond = icmp ult i32 %23, 16
  br i1 %or.cond, label %24, label %28

24:                                               ; preds = %21
  %25 = load i64, ptr @H5E_ID_g, align 8
  %26 = load i64, ptr @H5E_BADGROUP_g, align 8
  %27 = tail call i32 (ptr, ptr, i32, i64, i64, ptr, ...) @H5E_printf_stack(ptr noundef nonnull @.str, ptr noundef nonnull @__func__.H5Itype_exists, i32 noundef 172, i64 noundef %25, i64 noundef %26, ptr noundef nonnull @.str.6) #3
  br label %.thread31

28:                                               ; preds = %21
  %29 = icmp sgt i32 %0, -1
  %30 = load i32, ptr @H5I_next_type_g, align 4
  %.not = icmp sgt i32 %30, %0
  %or.cond16 = select i1 %29, i1 %.not, i1 false
  br i1 %or.cond16, label %36, label %31

31:                                               ; preds = %28
  %32 = load i64, ptr @H5E_ARGS_g, align 8
  %33 = load i64, ptr @H5E_BADRANGE_g, align 8
  %34 = tail call i32 (ptr, ptr, i32, i64, i64, ptr, ...) @H5E_printf_stack(ptr noundef nonnull @.str, ptr noundef nonnull @__func__.H5Itype_exists, i32 noundef 174, i64 noundef %32, i64 noundef %33, ptr noundef nonnull @.str.7) #3
  br label %.thread31

.thread31:                                        ; preds = %31, %24
  %35 = tail call i32 @H5CX_pop(i1 noundef zeroext true) #3
  br label %.thread25

36:                                               ; preds = %28
  %37 = zext nneg i32 %0 to i64
  %38 = getelementptr inbounds [127 x ptr], ptr @H5I_type_info_array_g, i64 0, i64 %37
  %39 = load ptr, ptr %38, align 8
  %40 = icmp ne ptr %39, null
  %spec.select = zext i1 %40 to i32
  %41 = tail call i32 @H5CX_pop(i1 noundef zeroext true) #3
  br label %43

.thread25:                                        ; preds = %17, %10, %.thread31
  %42 = tail call i32 @H5E_dump_api_stack() #3
  br label %43

43:                                               ; preds = %36, %.thread25
  %.0142028 = phi i32 [ -1, %.thread25 ], [ %spec.select, %36 ]
  ret i32 %.0142028
}